; Function Attrs: mustprogress nofree nounwind memory(argmem: readwrite) uwtable
define hidden noundef ptr @_ZNK6Symbol22as_klass_external_nameEPci(ptr nocapture noundef nonnull readonly align 4 dereferenceable(8) %0, ptr noundef returned %1, i32 noundef %2) local_unnamed_addr #8 align 2 {
  %4 = icmp sgt i32 %2, 0
  br i1 %4, label %5, label %.loopexit

5:                                                ; preds = %3
  %6 = add nsw i32 %2, -1
  %7 = getelementptr inbounds i8, ptr %0, i64 4
  %8 = load i16, ptr %7, align 4
  %9 = zext i16 %8 to i32
  %10 = tail call i32 @llvm.umin.i32(i32 %6, i32 %9)
  %.not.i = icmp eq i32 %10, 0
  br i1 %.not.i, label %_ZNK6Symbol11as_C_stringEPci.exit, label %.lr.ph.i

.lr.ph.i:                                         ; preds = %5
  %11 = getelementptr inbounds i8, ptr %0, i64 6
  %wide.trip.count.i = zext nneg i32 %10 to i64
  br label %12

12:                                               ; preds = %12, %.lr.ph.i
  %indvars.iv.i = phi i64 [ 0, %.lr.ph.i ], [ %indvars.iv.next.i, %12 ]
  %13 = getelementptr inbounds i8, ptr %11, i64 %indvars.iv.i
  %14 = load i8, ptr %13, align 1
  %15 = getelementptr inbounds i8, ptr %1, i64 %indvars.iv.i
  store i8 %14, ptr %15, align 1
  %indvars.iv.next.i = add nuw nsw i64 %indvars.iv.i, 1
  %exitcond.not.i = icmp eq i64 %indvars.iv.next.i, %wide.trip.count.i
  br i1 %exitcond.not.i, label %_ZNK6Symbol11as_C_stringEPci.exit, label %12, !llvm.loop !8

_ZNK6Symbol11as_C_stringEPci.exit:                ; preds = %12, %5
  %.pre-phi.i = phi i64 [ 0, %5 ], [ %wide.trip.count.i, %12 ]
  %16 = getelementptr inbounds i8, ptr %1, i64 %.pre-phi.i
  store i8 0, ptr %16, align 1
  %17 = tail call i64 @strlen(ptr noundef nonnull dereferenceable(1) %1) #18
  %18 = trunc i64 %17 to i32
  %19 = icmp sgt i32 %18, 0
  br i1 %19, label %.lr.ph.preheader, label %.loopexit

.lr.ph.preheader:                                 ; preds = %_ZNK6Symbol11as_C_stringEPci.exit
  %wide.trip.count = and i64 %17, 2147483647
  br label %.lr.ph

.lr.ph:                                           ; preds = %.lr.ph.preheader, %24
  %indvars.iv = phi i64 [ 0, %.lr.ph.preheader ], [ %indvars.iv.next, %24 ]
  %20 = getelementptr inbounds i8, ptr %1, i64 %indvars.iv
  %21 = load i8, ptr %20, align 1
  %22 = icmp eq i8 %21, 47
  br i1 %22, label %23, label %24

23:                                               ; preds = %.lr.ph
  store i8 46, ptr %20, align 1
  br label %24

24:                                               ; preds = %.lr.ph, %23
  %indvars.iv.next = add nuw nsw i64 %indvars.iv, 1
  %exitcond.not = icmp eq i64 %indvars.iv.next, %wide.trip.count
  br i1 %exitcond.not, label %.loopexit, label %.lr.ph, !llvm.loop !9

.loopexit:                                        ; preds = %24, %_ZNK6Symbol11as_C_stringEPci.exit, %3
  ret ptr %1
}